; Function Attrs: nounwind uwtable
define ptr @l_Lake_ConfigLang_ofString_x3f___boxed(ptr noundef %0) local_unnamed_addr #1 {
  %2 = load ptr, ptr @l_Lake_ConfigLang_ofString_x3f___closed__1, align 8, !tbaa !10
  %3 = icmp eq ptr %0, %2
  br i1 %3, label %lean_string_dec_eq.exit.thread12.i, label %4

4:                                                ; preds = %1
  %5 = getelementptr i8, ptr %0, i64 8
  %.val.i.i.i = load i64, ptr %5, align 8, !tbaa !16
  %6 = getelementptr i8, ptr %2, i64 8
  %.val7.i.i.i = load i64, ptr %6, align 8, !tbaa !16
  %7 = icmp eq i64 %.val.i.i.i, %.val7.i.i.i
  br i1 %7, label %lean_string_dec_eq.exit.i, label %lean_string_dec_eq.exit.thread.i

lean_string_dec_eq.exit.i:                        ; preds = %4
  %8 = tail call zeroext i1 @lean_string_eq_cold(ptr noundef nonnull %0, ptr noundef nonnull %2) #5
  br i1 %8, label %lean_string_dec_eq.exit.thread12.i, label %lean_string_dec_eq.exit.thread.i

lean_string_dec_eq.exit.thread.i:                 ; preds = %lean_string_dec_eq.exit.i, %4
  %9 = load ptr, ptr @l_Lake_ConfigLang_ofString_x3f___closed__2, align 8, !tbaa !10
  %10 = icmp eq ptr %0, %9
  br i1 %10, label %lean_string_dec_eq.exit11.thread13.i, label %11

11:                                               ; preds = %lean_string_dec_eq.exit.thread.i
  %.val.i.i9.i = load i64, ptr %5, align 8, !tbaa !16
  %12 = getelementptr i8, ptr %9, i64 8
  %.val7.i.i10.i = load i64, ptr %12, align 8, !tbaa !16
  %13 = icmp eq i64 %.val.i.i9.i, %.val7.i.i10.i
  br i1 %13, label %lean_string_dec_eq.exit11.i, label %l_Lake_ConfigLang_ofString_x3f.exit

lean_string_dec_eq.exit11.i:                      ; preds = %11
  %14 = tail call zeroext i1 @lean_string_eq_cold(ptr noundef nonnull %0, ptr noundef nonnull %9) #5
  br i1 %14, label %lean_string_dec_eq.exit11.thread13.i, label %l_Lake_ConfigLang_ofString_x3f.exit

lean_string_dec_eq.exit11.thread13.i:             ; preds = %lean_string_dec_eq.exit11.i, %lean_string_dec_eq.exit.thread.i
  %15 = load ptr, ptr @l_Lake_ConfigLang_ofString_x3f___closed__3, align 8, !tbaa !10
  br label %l_Lake_ConfigLang_ofString_x3f.exit

lean_string_dec_eq.exit.thread12.i:               ; preds = %lean_string_dec_eq.exit.i, %1
  %16 = load ptr, ptr @l_Lake_ConfigLang_ofString_x3f___closed__4, align 8, !tbaa !10
  br label %l_Lake_ConfigLang_ofString_x3f.exit

l_Lake_ConfigLang_ofString_x3f.exit:              ; preds = %11, %lean_string_dec_eq.exit11.i, %lean_string_dec_eq.exit11.thread13.i, %lean_string_dec_eq.exit.thread12.i
  %.1.i = phi ptr [ %16, %lean_string_dec_eq.exit.thread12.i ], [ %15, %lean_string_dec_eq.exit11.thread13.i ], [ inttoptr (i64 1 to ptr), %lean_string_dec_eq.exit11.i ], [ inttoptr (i64 1 to ptr), %11 ]
  %17 = ptrtoint ptr %0 to i64
  %18 = and i64 %17, 1
  %.not = icmp eq i64 %18, 0
  br i1 %.not, label %19, label %lean_dec.exit

19:                                               ; preds = %l_Lake_ConfigLang_ofString_x3f.exit
  %20 = load i32, ptr %0, align 4, !tbaa !4
  %21 = icmp sgt i32 %20, 1
  br i1 %21, label %22, label %24, !prof !9

22:                                               ; preds = %19
  %23 = add nsw i32 %20, -1
  store i32 %23, ptr %0, align 4, !tbaa !4
  br label %lean_dec.exit

24:                                               ; preds = %19
  %.not.i = icmp eq i32 %20, 0
  br i1 %.not.i, label %lean_dec.exit, label %25

25:                                               ; preds = %24
  tail call void @lean_dec_ref_cold(ptr noundef nonnull %0) #5
  br label %lean_dec.exit

lean_dec.exit:                                    ; preds = %25, %24, %22, %l_Lake_ConfigLang_ofString_x3f.exit
  ret ptr %.1.i
}